
test.elf:     file format elf32-littleriscv


Disassembly of section .text:

08000000 <_start>:
 8000000:	00000093          	li	ra,0
 8000004:	00000113          	li	sp,0
 8000008:	00000193          	li	gp,0
 800000c:	00000213          	li	tp,0
 8000010:	00000293          	li	t0,0
 8000014:	00000313          	li	t1,0
 8000018:	00000393          	li	t2,0
 800001c:	00000413          	li	s0,0
 8000020:	00000493          	li	s1,0
 8000024:	00000513          	li	a0,0
 8000028:	00000593          	li	a1,0
 800002c:	00000613          	li	a2,0
 8000030:	00000693          	li	a3,0
 8000034:	00000713          	li	a4,0
 8000038:	00000793          	li	a5,0
 800003c:	00000813          	li	a6,0
 8000040:	00000893          	li	a7,0
 8000044:	00000913          	li	s2,0
 8000048:	00000993          	li	s3,0
 800004c:	00000a13          	li	s4,0
 8000050:	00000a93          	li	s5,0
 8000054:	00000b13          	li	s6,0
 8000058:	00000b93          	li	s7,0
 800005c:	00000c13          	li	s8,0
 8000060:	00000c93          	li	s9,0
 8000064:	00000d13          	li	s10,0
 8000068:	00000d93          	li	s11,0
 800006c:	00000e13          	li	t3,0
 8000070:	00000e93          	li	t4,0
 8000074:	00000f13          	li	t5,0
 8000078:	00000f93          	li	t6,0
 800007c:	08001137          	lui	sp,0x8001
 8000080:	fe010413          	addi	s0,sp,-32 # 8000fe0 <SIMD_LEN+0xebc>
 8000084:	00042023          	sw	zero,0(s0)
 8000088:	00042223          	sw	zero,4(s0)
 800008c:	00042423          	sw	zero,8(s0)
 8000090:	00042623          	sw	zero,12(s0)
 8000094:	00042823          	sw	zero,16(s0)
 8000098:	00042a23          	sw	zero,20(s0)
 800009c:	00042c23          	sw	zero,24(s0)
 80000a0:	00042e23          	sw	zero,28(s0)
 80000a4:	074000ef          	jal	8000118 <main>

080000a8 <putchar>:
 80000a8:	100017b7          	lui	a5,0x10001
 80000ac:	0087a783          	lw	a5,8(a5) # 10001008 <SIMD_LEN+0x8000ee4>
 80000b0:	0087f793          	andi	a5,a5,8
 80000b4:	00078c63          	beqz	a5,80000cc <putchar+0x24>
 80000b8:	10001737          	lui	a4,0x10001
 80000bc:	00000013          	nop
 80000c0:	00872783          	lw	a5,8(a4) # 10001008 <SIMD_LEN+0x8000ee4>
 80000c4:	0087f793          	andi	a5,a5,8
 80000c8:	fe079ae3          	bnez	a5,80000bc <putchar+0x14>
 80000cc:	0ff57513          	zext.b	a0,a0
 80000d0:	100017b7          	lui	a5,0x10001
 80000d4:	00a7a223          	sw	a0,4(a5) # 10001004 <SIMD_LEN+0x8000ee0>
 80000d8:	00008067          	ret

080000dc <prints>:
 80000dc:	ff010113          	addi	sp,sp,-16
 80000e0:	00112623          	sw	ra,12(sp)
 80000e4:	00812423          	sw	s0,8(sp)
 80000e8:	00050413          	mv	s0,a0
 80000ec:	00054503          	lbu	a0,0(a0)
 80000f0:	00050a63          	beqz	a0,8000104 <prints+0x28>
 80000f4:	fb5ff0ef          	jal	80000a8 <putchar>
 80000f8:	00140413          	addi	s0,s0,1
 80000fc:	00044503          	lbu	a0,0(s0)
 8000100:	fe051ae3          	bnez	a0,80000f4 <prints+0x18>
 8000104:	00c12083          	lw	ra,12(sp)
 8000108:	00812403          	lw	s0,8(sp)
 800010c:	01010113          	addi	sp,sp,16
 8000110:	00008067          	ret

08000114 <exit>:
 8000114:	51e0d073          	csrwi	0x51e,1

08000118 <main>:
 8000118:	51f05073          	csrwi	0x51f,0
 800011c:	51f15073          	csrwi	0x51f,2
 8000120:	ff9ff06f          	j	8000118 <main>
